; ModuleID = 'source-C-CXX/52/470.c'
source_filename = "source-C-CXX/52/470.c"
target datalayout = "e-m:e-p270:32:32-p271:32:32-p272:64:64-i64:64-f80:128-n8:16:32:64-S128"
target triple = "x86_64-pc-linux-gnu"

@.str = private unnamed_addr constant [3 x i8] c"%d\00", align 1
@.str.1 = private unnamed_addr constant [4 x i8] c",%d\00", align 1

; Function Attrs: nofree nounwind sspstrong uwtable
define dso_local void @main() local_unnamed_addr #0 {
  %1 = alloca i32, align 4
  %2 = alloca [301 x i32], align 16
  %3 = bitcast i32* %1 to i8*
  call void @llvm.lifetime.start.p0i8(i64 4, i8* nonnull %3) #4
  %4 = bitcast [301 x i32]* %2 to i8*
  call void @llvm.lifetime.start.p0i8(i64 1204, i8* nonnull %4) #4
  %5 = call i32 (i8*, ...) @__isoc99_scanf(i8* getelementptr inbounds ([3 x i8], [3 x i8]* @.str, i64 0, i64 0), i32* nonnull %1)
  %6 = load i32, i32* %1, align 4, !tbaa !5
  %7 = icmp slt i32 %6, 1
  br i1 %7, label %37, label %8

8:                                                ; preds = %0, %29
  %9 = phi i32 [ %31, %29 ], [ 1, %0 ]
  %10 = sext i32 %9 to i64
  %11 = getelementptr inbounds [301 x i32], [301 x i32]* %2, i64 0, i64 %10
  %12 = call i32 (i8*, ...) @__isoc99_scanf(i8* getelementptr inbounds ([3 x i8], [3 x i8]* @.str, i64 0, i64 0), i32* nonnull %11)
  %13 = icmp sgt i32 %9, 1
  br i1 %13, label %14, label %29

14:                                               ; preds = %8
  %15 = load i32, i32* %11, align 4, !tbaa !5
  %16 = zext i32 %9 to i64
  br label %19

17:                                               ; preds = %19
  %18 = icmp eq i64 %24, %16
  br i1 %18, label %29, label %19, !llvm.loop !9

19:                                               ; preds = %14, %17
  %20 = phi i64 [ 1, %14 ], [ %24, %17 ]
  %21 = getelementptr inbounds [301 x i32], [301 x i32]* %2, i64 0, i64 %20
  %22 = load i32, i32* %21, align 4, !tbaa !5
  %23 = icmp eq i32 %15, %22
  %24 = add nuw nsw i64 %20, 1
  br i1 %23, label %25, label %17

25:                                               ; preds = %19
  %26 = add nsw i32 %9, -1
  %27 = load i32, i32* %1, align 4, !tbaa !5
  %28 = add nsw i32 %27, -1
  store i32 %28, i32* %1, align 4, !tbaa !5
  br label %29

29:                                               ; preds = %17, %8, %25
  %30 = phi i32 [ %26, %25 ], [ %9, %8 ], [ %9, %17 ]
  %31 = add nsw i32 %30, 1
  %32 = load i32, i32* %1, align 4, !tbaa !5
  %33 = icmp slt i32 %30, %32
  br i1 %33, label %8, label %34, !llvm.loop !11

34:                                               ; preds = %29
  %35 = getelementptr inbounds [301 x i32], [301 x i32]* %2, i64 0, i64 1
  %36 = load i32, i32* %35, align 4, !tbaa !5
  br label %37

37:                                               ; preds = %34, %0
  %38 = phi i32 [ %36, %34 ], [ undef, %0 ]
  %39 = call i32 (i8*, ...) @printf(i8* nonnull dereferenceable(1) getelementptr inbounds ([3 x i8], [3 x i8]* @.str, i64 0, i64 0), i32 %38)
  %40 = load i32, i32* %1, align 4, !tbaa !5
  %41 = icmp slt i32 %40, 2
  br i1 %41, label %51, label %42

42:                                               ; preds = %37, %42
  %43 = phi i64 [ %47, %42 ], [ 2, %37 ]
  %44 = getelementptr inbounds [301 x i32], [301 x i32]* %2, i64 0, i64 %43
  %45 = load i32, i32* %44, align 4, !tbaa !5
  %46 = call i32 (i8*, ...) @printf(i8* nonnull dereferenceable(1) getelementptr inbounds ([4 x i8], [4 x i8]* @.str.1, i64 0, i64 0), i32 %45)
  %47 = add nuw nsw i64 %43, 1
  %48 = load i32, i32* %1, align 4, !tbaa !5
  %49 = sext i32 %48 to i64
  %50 = icmp slt i64 %43, %49
  br i1 %50, label %42, label %51, !llvm.loop !12

51:                                               ; preds = %42, %37
  %52 = call i32 @putchar(i32 10)
  call void @llvm.lifetime.end.p0i8(i64 1204, i8* nonnull %4) #4
  call void @llvm.lifetime.end.p0i8(i64 4, i8* nonnull %3) #4
  ret void
}

; Function Attrs: argmemonly mustprogress nofree nosync nounwind willreturn
declare void @llvm.lifetime.start.p0i8(i64 immarg, i8* nocapture) #1

; Function Attrs: nofree nounwind
declare noundef i32 @__isoc99_scanf(i8* nocapture noundef readonly, ...) local_unnamed_addr #2

; Function Attrs: nofree nounwind
declare noundef i32 @printf(i8* nocapture noundef readonly, ...) local_unnamed_addr #2

; Function Attrs: argmemonly mustprogress nofree nosync nounwind willreturn
declare void @llvm.lifetime.end.p0i8(i64 immarg, i8* nocapture) #1

; Function Attrs: nofree nounwind
declare noundef i32 @putchar(i32 noundef) local_unnamed_addr #3


!llvm.module.flags = !{!0, !1, !2, !3}
!llvm.ident = !{!4}

!0 = !{i32 1, !"wchar_size", i32 4}
!1 = !{i32 7, !"PIC Level", i32 2}
!2 = !{i32 7, !"PIE Level", i32 2}
!3 = !{i32 7, !"uwtable", i32 1}
!4 = !{!"clang version 13.0.0"}
!5 = !{!6, !6, i64 0}
!6 = !{!"int", !7, i64 0}
!7 = !{!"omnipotent char", !8, i64 0}
!8 = !{!"Simple C/C++ TBAA"}
!9 = distinct !{!9, !10}
!10 = !{!"llvm.loop.mustprogress"}
!11 = distinct !{!11, !10}
!12 = distinct !{!12, !10}
